; ModuleID = 'source-C-CXX/35/1345.c'
source_filename = "source-C-CXX/35/1345.c"
target datalayout = "e-m:e-p270:32:32-p271:32:32-p272:64:64-i64:64-f80:128-n8:16:32:64-S128"
target triple = "x86_64-pc-linux-gnu"

@.str = private unnamed_addr constant [3 x i8] c"%s\00", align 1
@.str.1 = private unnamed_addr constant [3 x i8] c"NO\00", align 1
@.str.2 = private unnamed_addr constant [4 x i8] c"YES\00", align 1

; Function Attrs: nofree nounwind sspstrong uwtable
define dso_local i32 @main() local_unnamed_addr #0 {
  %1 = alloca [100 x i8], align 16
  %2 = alloca [100 x i8], align 16
  %3 = getelementptr inbounds [100 x i8], [100 x i8]* %1, i64 0, i64 0
  call void @llvm.lifetime.start.p0i8(i64 100, i8* nonnull %3) #5
  call void @llvm.memset.p0i8.i64(i8* noundef nonnull align 16 dereferenceable(100) %3, i8 0, i64 100, i1 false)
  %4 = getelementptr inbounds [100 x i8], [100 x i8]* %2, i64 0, i64 0
  call void @llvm.lifetime.start.p0i8(i64 100, i8* nonnull %4) #5
  call void @llvm.memset.p0i8.i64(i8* noundef nonnull align 16 dereferenceable(100) %4, i8 0, i64 100, i1 false)
  %5 = call i32 (i8*, ...) @__isoc99_scanf(i8* getelementptr inbounds ([3 x i8], [3 x i8]* @.str, i64 0, i64 0), i8* nonnull %3)
  %6 = call i32 (i8*, ...) @__isoc99_scanf(i8* getelementptr inbounds ([3 x i8], [3 x i8]* @.str, i64 0, i64 0), i8* nonnull %4)
  %7 = call i64 @strlen(i8* noundef nonnull %3) #6
  %8 = trunc i64 %7 to i32
  %9 = call i64 @strlen(i8* noundef nonnull %4) #6
  %10 = trunc i64 %9 to i32
  %11 = icmp eq i32 %8, %10
  br i1 %11, label %12, label %42

12:                                               ; preds = %0
  %13 = icmp sgt i32 %8, 0
  br i1 %13, label %14, label %41

14:                                               ; preds = %12
  %15 = shl i64 %7, 32
  %16 = ashr exact i64 %15, 32
  %17 = and i64 %7, 4294967295
  br label %18

18:                                               ; preds = %14, %34
  %19 = phi i64 [ 0, %14 ], [ %37, %34 ]
  %20 = phi i1 [ true, %14 ], [ %38, %34 ]
  %21 = getelementptr inbounds [100 x i8], [100 x i8]* %1, i64 0, i64 %19
  %22 = load i8, i8* %21, align 1, !tbaa !5
  br label %23

23:                                               ; preds = %18, %28
  %24 = phi i64 [ 0, %18 ], [ %29, %28 ]
  %25 = getelementptr inbounds [100 x i8], [100 x i8]* %2, i64 0, i64 %24
  %26 = load i8, i8* %25, align 1, !tbaa !5
  %27 = icmp eq i8 %26, %22
  br i1 %27, label %31, label %28

28:                                               ; preds = %23
  %29 = add nuw nsw i64 %24, 1
  %30 = icmp eq i64 %29, %17
  br i1 %30, label %40, label %23, !llvm.loop !8

31:                                               ; preds = %23
  %32 = trunc i64 %24 to i32
  %33 = icmp eq i32 %32, %8
  br i1 %33, label %40, label %34

34:                                               ; preds = %31
  %35 = and i64 %24, 4294967295
  %36 = getelementptr inbounds [100 x i8], [100 x i8]* %2, i64 0, i64 %35
  store i8 0, i8* %36, align 1, !tbaa !5
  %37 = add nuw nsw i64 %19, 1
  %38 = icmp slt i64 %37, %16
  %39 = icmp eq i64 %37, %17
  br i1 %39, label %41, label %18, !llvm.loop !10

40:                                               ; preds = %31, %28
  br i1 %20, label %42, label %41

41:                                               ; preds = %34, %12, %40
  br label %42

42:                                               ; preds = %40, %0, %41
  %43 = phi i8* [ getelementptr inbounds ([4 x i8], [4 x i8]* @.str.2, i64 0, i64 0), %41 ], [ getelementptr inbounds ([3 x i8], [3 x i8]* @.str.1, i64 0, i64 0), %0 ], [ getelementptr inbounds ([3 x i8], [3 x i8]* @.str.1, i64 0, i64 0), %40 ]
  %44 = call i32 (i8*, ...) @printf(i8* nonnull dereferenceable(1) %43)
  call void @llvm.lifetime.end.p0i8(i64 100, i8* nonnull %4) #5
  call void @llvm.lifetime.end.p0i8(i64 100, i8* nonnull %3) #5
  ret i32 0
}

; Function Attrs: argmemonly mustprogress nofree nosync nounwind willreturn
declare void @llvm.lifetime.start.p0i8(i64 immarg, i8* nocapture) #1

; Function Attrs: argmemonly mustprogress nofree nounwind willreturn writeonly
declare void @llvm.memset.p0i8.i64(i8* nocapture writeonly, i8, i64, i1 immarg) #2

; Function Attrs: nofree nounwind
declare noundef i32 @__isoc99_scanf(i8* nocapture noundef readonly, ...) local_unnamed_addr #3

; Function Attrs: argmemonly mustprogress nofree nounwind readonly willreturn
declare i64 @strlen(i8* nocapture) local_unnamed_addr #4

; Function Attrs: nofree nounwind
declare noundef i32 @printf(i8* nocapture noundef readonly, ...) local_unnamed_addr #3

; Function Attrs: argmemonly mustprogress nofree nosync nounwind willreturn
declare void @llvm.lifetime.end.p0i8(i64 immarg, i8* nocapture) #1


!llvm.module.flags = !{!0, !1, !2, !3}
!llvm.ident = !{!4}

!0 = !{i32 1, !"wchar_size", i32 4}
!1 = !{i32 7, !"PIC Level", i32 2}
!2 = !{i32 7, !"PIE Level", i32 2}
!3 = !{i32 7, !"uwtable", i32 1}
!4 = !{!"clang version 13.0.0"}
!5 = !{!6, !6, i64 0}
!6 = !{!"omnipotent char", !7, i64 0}
!7 = !{!"Simple C/C++ TBAA"}
!8 = distinct !{!8, !9}
!9 = !{!"llvm.loop.mustprogress"}
!10 = distinct !{!10, !9}
